target datalayout = "e-m:e-p270:32:32-p271:32:32-p272:64:64-i64:64-i128:128-f80:128-n8:16:32:64-S128"
target triple = "x86_64-pc-linux-gnu"

%struct.Vec_Wrd_t_ = type { i32, i32, ptr }

@.str.5 = private unnamed_addr constant [2 x i8] c"\0A\00", align 1
@.str.16 = private unnamed_addr constant [3 x i8] c"%c\00", align 1
@.str.17 = private unnamed_addr constant [2 x i8] c"0\00", align 1
@.str.18 = private unnamed_addr constant [2 x i8] c"1\00", align 1
@.str.19 = private unnamed_addr constant [2 x i8] c"-\00", align 1
@.str.20 = private unnamed_addr constant [11 x i8] c"%02d.resub\00", align 1
@s_Counter = internal global i32 0, align 4
@.str.21 = private unnamed_addr constant [3 x i8] c"wb\00", align 1
@.str.22 = private unnamed_addr constant [26 x i8] c"Cannot open output file.\0A\00", align 1
@.str.23 = private unnamed_addr constant [19 x i8] c"resyn %d %d %d %d\0A\00", align 1

; Function Attrs: inlinehint nounwind uwtable
define internal i32 @Abc_TtGetBit(ptr noundef %0, i32 noundef %1) #2 {
  %3 = alloca ptr, align 8
  %4 = alloca i32, align 4
  store ptr %0, ptr %3, align 8, !tbaa !10
  store i32 %1, ptr %4, align 4, !tbaa !8
  %5 = load ptr, ptr %3, align 8, !tbaa !10
  %6 = load i32, ptr %4, align 4, !tbaa !8
  %7 = ashr i32 %6, 6
  %8 = sext i32 %7 to i64
  %9 = getelementptr inbounds i64, ptr %5, i64 %8
  %10 = load i64, ptr %9, align 8, !tbaa !17
  %11 = load i32, ptr %4, align 4, !tbaa !8
  %12 = and i32 %11, 63
  %13 = zext i32 %12 to i64
  %14 = lshr i64 %10, %13
  %15 = trunc i64 %14 to i32
  %16 = and i32 %15, 1
  ret i32 %16
}

; Function Attrs: inlinehint nounwind uwtable
define internal ptr @Vec_WrdEntryP(ptr noundef %0, i32 noundef %1) #2 {
  %3 = alloca ptr, align 8
  %4 = alloca i32, align 4
  store ptr %0, ptr %3, align 8, !tbaa !3
  store i32 %1, ptr %4, align 4, !tbaa !8
  %5 = load ptr, ptr %3, align 8, !tbaa !3
  %6 = getelementptr inbounds nuw %struct.Vec_Wrd_t_, ptr %5, i32 0, i32 2
  %7 = load ptr, ptr %6, align 8, !tbaa !16
  %8 = load i32, ptr %4, align 4, !tbaa !8
  %9 = sext i32 %8 to i64
  %10 = getelementptr inbounds i64, ptr %7, i64 %9
  ret ptr %10
}

; Function Attrs: nounwind uwtable
define void @Supp_DeriveDumpSims(ptr noundef %0, ptr noundef %1, i32 noundef %2) #0 {
  %4 = alloca ptr, align 8
  %5 = alloca ptr, align 8
  %6 = alloca i32, align 4
  %7 = alloca i32, align 4
  %8 = alloca i32, align 4
  %9 = alloca i32, align 4
  %10 = alloca ptr, align 8
  store ptr %0, ptr %4, align 8, !tbaa !166
  store ptr %1, ptr %5, align 8, !tbaa !3
  store i32 %2, ptr %6, align 4, !tbaa !8
  call void @llvm.lifetime.start.p0(i64 4, ptr %7) #15
  call void @llvm.lifetime.start.p0(i64 4, ptr %8) #15
  call void @llvm.lifetime.start.p0(i64 4, ptr %9) #15
  %11 = load ptr, ptr %5, align 8, !tbaa !3
  %12 = call i32 @Vec_WrdSize(ptr noundef %11)
  %13 = load i32, ptr %6, align 4, !tbaa !8
  %14 = sdiv i32 %12, %13
  store i32 %14, ptr %9, align 4, !tbaa !8
  store i32 0, ptr %7, align 4, !tbaa !8
  br label %15

15:                                               ; preds = %43, %3
  %16 = load i32, ptr %7, align 4, !tbaa !8
  %17 = load i32, ptr %9, align 4, !tbaa !8
  %18 = icmp slt i32 %16, %17
  br i1 %18, label %19, label %46

19:                                               ; preds = %15
  call void @llvm.lifetime.start.p0(i64 8, ptr %10) #15
  %20 = load ptr, ptr %5, align 8, !tbaa !3
  %21 = load i32, ptr %7, align 4, !tbaa !8
  %22 = load i32, ptr %6, align 4, !tbaa !8
  %23 = mul nsw i32 %21, %22
  %24 = call ptr @Vec_WrdEntryP(ptr noundef %20, i32 noundef %23)
  store ptr %24, ptr %10, align 8, !tbaa !10
  store i32 0, ptr %8, align 4, !tbaa !8
  br label %25

25:                                               ; preds = %37, %19
  %26 = load i32, ptr %8, align 4, !tbaa !8
  %27 = load i32, ptr %6, align 4, !tbaa !8
  %28 = mul nsw i32 64, %27
  %29 = icmp slt i32 %26, %28
  br i1 %29, label %30, label %40

30:                                               ; preds = %25
  %31 = load ptr, ptr %4, align 8, !tbaa !166
  %32 = load ptr, ptr %10, align 8, !tbaa !10
  %33 = load i32, ptr %8, align 4, !tbaa !8
  %34 = call i32 @Abc_TtGetBit(ptr noundef %32, i32 noundef %33)
  %35 = add nsw i32 48, %34
  %36 = call i32 (ptr, ptr, ...) @fprintf(ptr noundef %31, ptr noundef @.str.16, i32 noundef %35) #15
  br label %37

37:                                               ; preds = %30
  %38 = load i32, ptr %8, align 4, !tbaa !8
  %39 = add nsw i32 %38, 1
  store i32 %39, ptr %8, align 4, !tbaa !8
  br label %25, !llvm.loop !168

40:                                               ; preds = %25
  %41 = load ptr, ptr %4, align 8, !tbaa !166
  %42 = call i32 (ptr, ptr, ...) @fprintf(ptr noundef %41, ptr noundef @.str.5) #15
  call void @llvm.lifetime.end.p0(i64 8, ptr %10) #15
  br label %43

43:                                               ; preds = %40
  %44 = load i32, ptr %7, align 4, !tbaa !8
  %45 = add nsw i32 %44, 1
  store i32 %45, ptr %7, align 4, !tbaa !8
  br label %15, !llvm.loop !169

46:                                               ; preds = %15
  call void @llvm.lifetime.end.p0(i64 4, ptr %9) #15
  call void @llvm.lifetime.end.p0(i64 4, ptr %8) #15
  call void @llvm.lifetime.end.p0(i64 4, ptr %7) #15
  ret void
}

; Function Attrs: nounwind uwtable
define void @Supp_DeriveDumpSimsC(ptr noundef %0, ptr noundef %1, i32 noundef %2) #0 {
  %4 = alloca ptr, align 8
  %5 = alloca ptr, align 8
  %6 = alloca i32, align 4
  %7 = alloca i32, align 4
  %8 = alloca i32, align 4
  %9 = alloca i32, align 4
  %10 = alloca ptr, align 8
  %11 = alloca ptr, align 8
  store ptr %0, ptr %4, align 8, !tbaa !166
  store ptr %1, ptr %5, align 8, !tbaa !95
  store i32 %2, ptr %6, align 4, !tbaa !8
  call void @llvm.lifetime.start.p0(i64 4, ptr %7) #15
  call void @llvm.lifetime.start.p0(i64 4, ptr %8) #15
  call void @llvm.lifetime.start.p0(i64 4, ptr %9) #15
  %12 = load ptr, ptr %5, align 8, !tbaa !95
  %13 = getelementptr inbounds ptr, ptr %12, i64 0
  %14 = load ptr, ptr %13, align 8, !tbaa !3
  %15 = call i32 @Vec_WrdSize(ptr noundef %14)
  %16 = load i32, ptr %6, align 4, !tbaa !8
  %17 = sdiv i32 %15, %16
  store i32 %17, ptr %9, align 4, !tbaa !8
  store i32 0, ptr %7, align 4, !tbaa !8
  br label %18

18:                                               ; preds = %69, %3
  %19 = load i32, ptr %7, align 4, !tbaa !8
  %20 = load i32, ptr %9, align 4, !tbaa !8
  %21 = icmp slt i32 %19, %20
  br i1 %21, label %22, label %72

22:                                               ; preds = %18
  call void @llvm.lifetime.start.p0(i64 8, ptr %10) #15
  %23 = load ptr, ptr %5, align 8, !tbaa !95
  %24 = getelementptr inbounds ptr, ptr %23, i64 0
  %25 = load ptr, ptr %24, align 8, !tbaa !3
  %26 = load i32, ptr %7, align 4, !tbaa !8
  %27 = load i32, ptr %6, align 4, !tbaa !8
  %28 = mul nsw i32 %26, %27
  %29 = call ptr @Vec_WrdEntryP(ptr noundef %25, i32 noundef %28)
  store ptr %29, ptr %10, align 8, !tbaa !10
  call void @llvm.lifetime.start.p0(i64 8, ptr %11) #15
  %30 = load ptr, ptr %5, align 8, !tbaa !95
  %31 = getelementptr inbounds ptr, ptr %30, i64 1
  %32 = load ptr, ptr %31, align 8, !tbaa !3
  %33 = load i32, ptr %7, align 4, !tbaa !8
  %34 = load i32, ptr %6, align 4, !tbaa !8
  %35 = mul nsw i32 %33, %34
  %36 = call ptr @Vec_WrdEntryP(ptr noundef %32, i32 noundef %35)
  store ptr %36, ptr %11, align 8, !tbaa !10
  store i32 0, ptr %8, align 4, !tbaa !8
  br label %37

37:                                               ; preds = %63, %22
  %38 = load i32, ptr %8, align 4, !tbaa !8
  %39 = load i32, ptr %6, align 4, !tbaa !8
  %40 = mul nsw i32 64, %39
  %41 = icmp slt i32 %38, %40
  br i1 %41, label %42, label %66

42:                                               ; preds = %37
  %43 = load ptr, ptr %10, align 8, !tbaa !10
  %44 = load i32, ptr %8, align 4, !tbaa !8
  %45 = call i32 @Abc_TtGetBit(ptr noundef %43, i32 noundef %44)
  %46 = icmp ne i32 %45, 0
  br i1 %46, label %47, label %50

47:                                               ; preds = %42
  %48 = load ptr, ptr %4, align 8, !tbaa !166
  %49 = call i32 (ptr, ptr, ...) @fprintf(ptr noundef %48, ptr noundef @.str.17) #15
  br label %62

50:                                               ; preds = %42
  %51 = load ptr, ptr %11, align 8, !tbaa !10
  %52 = load i32, ptr %8, align 4, !tbaa !8
  %53 = call i32 @Abc_TtGetBit(ptr noundef %51, i32 noundef %52)
  %54 = icmp ne i32 %53, 0
  br i1 %54, label %55, label %58

55:                                               ; preds = %50
  %56 = load ptr, ptr %4, align 8, !tbaa !166
  %57 = call i32 (ptr, ptr, ...) @fprintf(ptr noundef %56, ptr noundef @.str.18) #15
  br label %61

58:                                               ; preds = %50
  %59 = load ptr, ptr %4, align 8, !tbaa !166
  %60 = call i32 (ptr, ptr, ...) @fprintf(ptr noundef %59, ptr noundef @.str.19) #15
  br label %61

61:                                               ; preds = %58, %55
  br label %62

62:                                               ; preds = %61, %47
  br label %63

63:                                               ; preds = %62
  %64 = load i32, ptr %8, align 4, !tbaa !8
  %65 = add nsw i32 %64, 1
  store i32 %65, ptr %8, align 4, !tbaa !8
  br label %37, !llvm.loop !170

66:                                               ; preds = %37
  %67 = load ptr, ptr %4, align 8, !tbaa !166
  %68 = call i32 (ptr, ptr, ...) @fprintf(ptr noundef %67, ptr noundef @.str.5) #15
  call void @llvm.lifetime.end.p0(i64 8, ptr %11) #15
  call void @llvm.lifetime.end.p0(i64 8, ptr %10) #15
  br label %69

69:                                               ; preds = %66
  %70 = load i32, ptr %7, align 4, !tbaa !8
  %71 = add nsw i32 %70, 1
  store i32 %71, ptr %7, align 4, !tbaa !8
  br label %18, !llvm.loop !171

72:                                               ; preds = %18
  call void @llvm.lifetime.end.p0(i64 4, ptr %9) #15
  call void @llvm.lifetime.end.p0(i64 4, ptr %8) #15
  call void @llvm.lifetime.end.p0(i64 4, ptr %7) #15
  ret void
}

; Function Attrs: inlinehint nounwind uwtable
define internal i32 @Vec_WrdSize(ptr noundef %0) #2 {
  %2 = alloca ptr, align 8
  store ptr %0, ptr %2, align 8, !tbaa !3
  %3 = load ptr, ptr %2, align 8, !tbaa !3
  %4 = getelementptr inbounds nuw %struct.Vec_Wrd_t_, ptr %3, i32 0, i32 1
  %5 = load i32, ptr %4, align 4, !tbaa !14
  ret i32 %5
}

; Function Attrs: nounwind uwtable
define void @Supp_DeriveDumpProbC(ptr noundef %0, ptr noundef %1, i32 noundef %2) #0 {
  %4 = alloca ptr, align 8
  %5 = alloca ptr, align 8
  %6 = alloca i32, align 4
  %7 = alloca [100 x i8], align 16
  %8 = alloca i32, align 4
  %9 = alloca i32, align 4
  %10 = alloca ptr, align 8
  store ptr %0, ptr %4, align 8, !tbaa !3
  store ptr %1, ptr %5, align 8, !tbaa !95
  store i32 %2, ptr %6, align 4, !tbaa !8
  call void @llvm.lifetime.start.p0(i64 100, ptr %7) #15
  call void @llvm.lifetime.start.p0(i64 4, ptr %8) #15
  %11 = load ptr, ptr %5, align 8, !tbaa !95
  %12 = getelementptr inbounds ptr, ptr %11, i64 0
  %13 = load ptr, ptr %12, align 8, !tbaa !3
  %14 = call i32 @Vec_WrdSize(ptr noundef %13)
  %15 = load i32, ptr %6, align 4, !tbaa !8
  %16 = sdiv i32 %14, %15
  store i32 %16, ptr %8, align 4, !tbaa !8
  call void @llvm.lifetime.start.p0(i64 4, ptr %9) #15
  %17 = getelementptr inbounds [100 x i8], ptr %7, i64 0, i64 0
  %18 = load i32, ptr @s_Counter, align 4, !tbaa !8
  %19 = call i32 (ptr, ptr, ...) @sprintf(ptr noundef %17, ptr noundef @.str.20, i32 noundef %18) #15
  store i32 %19, ptr %9, align 4, !tbaa !8
  call void @llvm.lifetime.start.p0(i64 8, ptr %10) #15
  %20 = getelementptr inbounds [100 x i8], ptr %7, i64 0, i64 0
  %21 = call noalias ptr @fopen(ptr noundef %20, ptr noundef @.str.21)
  store ptr %21, ptr %10, align 8, !tbaa !166
  %22 = load ptr, ptr %10, align 8, !tbaa !166
  %23 = icmp eq ptr %22, null
  br i1 %23, label %24, label %26

24:                                               ; preds = %3
  %25 = call i32 (ptr, ...) @printf(ptr noundef @.str.22)
  br label %26

26:                                               ; preds = %24, %3
  %27 = load ptr, ptr %10, align 8, !tbaa !166
  %28 = load i32, ptr %8, align 4, !tbaa !8
  %29 = load i32, ptr %6, align 4, !tbaa !8
  %30 = mul nsw i32 64, %29
  %31 = call i32 (ptr, ptr, ...) @fprintf(ptr noundef %27, ptr noundef @.str.23, i32 noundef 0, i32 noundef %28, i32 noundef 1, i32 noundef %30) #15
  %32 = load ptr, ptr %10, align 8, !tbaa !166
  %33 = load ptr, ptr %5, align 8, !tbaa !95
  %34 = load i32, ptr %6, align 4, !tbaa !8
  call void @Supp_DeriveDumpSimsC(ptr noundef %32, ptr noundef %33, i32 noundef %34)
  %35 = load ptr, ptr %10, align 8, !tbaa !166
  %36 = load ptr, ptr %4, align 8, !tbaa !3
  %37 = load i32, ptr %6, align 4, !tbaa !8
  call void @Supp_DeriveDumpSims(ptr noundef %35, ptr noundef %36, i32 noundef %37)
  %38 = load ptr, ptr %10, align 8, !tbaa !166
  %39 = call i32 @fclose(ptr noundef %38)
  store i32 0, ptr %9, align 4, !tbaa !8
  call void @llvm.lifetime.end.p0(i64 8, ptr %10) #15
  call void @llvm.lifetime.end.p0(i64 4, ptr %9) #15
  call void @llvm.lifetime.end.p0(i64 4, ptr %8) #15
  call void @llvm.lifetime.end.p0(i64 100, ptr %7) #15
  ret void
}