; Function Attrs: nofree nounwind uwtable
define void @Supp_DeriveDumpProbC(ptr noundef readonly captures(none) %0, ptr noundef readonly captures(none) %1, i32 noundef %2) local_unnamed_addr #12 {
  %4 = alloca [100 x i8], align 16
  call void @llvm.lifetime.start.p0(i64 100, ptr nonnull %4) #32
  %5 = load ptr, ptr %1, align 8, !tbaa !59
  %6 = getelementptr i8, ptr %5, i64 4
  %.val = load i32, ptr %6, align 4, !tbaa !3
  %7 = sdiv i32 %.val, %2
  %8 = load i32, ptr @s_Counter, align 4, !tbaa !35
  %9 = call i32 (ptr, ptr, ...) @sprintf(ptr noundef nonnull dereferenceable(1) %4, ptr noundef nonnull dereferenceable(1) @.str.20, i32 noundef %8) #32
  %10 = call noalias ptr @fopen(ptr noundef nonnull %4, ptr noundef nonnull @.str.21)
  %11 = icmp eq ptr %10, null
  br i1 %11, label %.split13, label %.split

.split:                                           ; preds = %3
  %12 = shl nsw i32 %2, 6
  %13 = tail call i32 (ptr, ptr, ...) @fprintf(ptr noundef nonnull %10, ptr noundef nonnull @.str.23, i32 noundef 0, i32 noundef %7, i32 noundef 1, i32 noundef %12) #32
  %14 = load ptr, ptr %1, align 8, !tbaa !59
  %15 = getelementptr i8, ptr %14, i64 4
  %.val.i = load i32, ptr %15, align 4, !tbaa !3
  %16 = sdiv i32 %.val.i, %2
  %17 = icmp sgt i32 %16, 0
  br i1 %17, label %.lr.ph31.i, label %Supp_DeriveDumpSimsC.exit

.lr.ph31.i:                                       ; preds = %.split
  %18 = getelementptr inbounds nuw i8, ptr %1, i64 8
  %19 = icmp sgt i32 %2, 0
  br i1 %19, label %.lr.ph.us.preheader.i, label %.lr.ph31.split.i

.lr.ph.us.preheader.i:                            ; preds = %.lr.ph31.i
  %20 = zext nneg i32 %2 to i64
  %wide.trip.count.i = zext nneg i32 %16 to i64
  br label %.lr.ph.us.i

.lr.ph.us.i:                                      ; preds = %._crit_edge.us.i, %.lr.ph.us.preheader.i
  %indvars.iv.i = phi i64 [ 0, %.lr.ph.us.preheader.i ], [ %indvars.iv.next.i, %._crit_edge.us.i ]
  %21 = load ptr, ptr %1, align 8, !tbaa !59
  %22 = mul nuw nsw i64 %indvars.iv.i, %20
  %23 = getelementptr i8, ptr %21, i64 8
  %.val27.us.i = load ptr, ptr %23, align 8, !tbaa !10
  %24 = getelementptr inbounds nuw i64, ptr %.val27.us.i, i64 %22
  %25 = load ptr, ptr %18, align 8, !tbaa !59
  %26 = getelementptr i8, ptr %25, i64 8
  %.val26.us.i = load ptr, ptr %26, align 8, !tbaa !10
  %27 = getelementptr inbounds nuw i64, ptr %.val26.us.i, i64 %22
  br label %28

28:                                               ; preds = %41, %.lr.ph.us.i
  %.02128.us.i = phi i32 [ 0, %.lr.ph.us.i ], [ %42, %41 ]
  %29 = lshr i32 %.02128.us.i, 6
  %30 = zext nneg i32 %29 to i64
  %31 = getelementptr inbounds nuw i64, ptr %24, i64 %30
  %32 = load i64, ptr %31, align 8, !tbaa !11
  %33 = and i32 %.02128.us.i, 63
  %34 = zext nneg i32 %33 to i64
  %35 = shl nuw i64 1, %34
  %36 = and i64 %35, %32
  %.not.us.i = icmp eq i64 %36, 0
  br i1 %.not.us.i, label %37, label %41

37:                                               ; preds = %28
  %38 = getelementptr inbounds nuw i64, ptr %27, i64 %30
  %39 = load i64, ptr %38, align 8, !tbaa !11
  %40 = and i64 %39, %35
  %.not22.us.i = icmp eq i64 %40, 0
  %..i = select i1 %.not22.us.i, i32 45, i32 49
  br label %41

41:                                               ; preds = %37, %28
  %.sink.i = phi i32 [ 48, %28 ], [ %..i, %37 ]
  %fputc23.us.i = tail call i32 @fputc(i32 %.sink.i, ptr nonnull %10)
  %42 = add nuw nsw i32 %.02128.us.i, 1
  %exitcond34.not.i = icmp eq i32 %42, %12
  br i1 %exitcond34.not.i, label %._crit_edge.us.i, label %28, !llvm.loop !152

._crit_edge.us.i:                                 ; preds = %41
  %fputc.us.i = tail call i32 @fputc(i32 10, ptr nonnull %10)
  %indvars.iv.next.i = add nuw nsw i64 %indvars.iv.i, 1
  %exitcond36.not.i = icmp eq i64 %indvars.iv.next.i, %wide.trip.count.i
  br i1 %exitcond36.not.i, label %Supp_DeriveDumpSimsC.exit, label %.lr.ph.us.i, !llvm.loop !153

.lr.ph31.split.i:                                 ; preds = %.lr.ph31.i, %.lr.ph31.split.i
  %.029.i = phi i32 [ %43, %.lr.ph31.split.i ], [ 0, %.lr.ph31.i ]
  %fputc.i = tail call i32 @fputc(i32 10, ptr nonnull %10)
  %43 = add nuw nsw i32 %.029.i, 1
  %exitcond.not.i = icmp eq i32 %43, %16
  br i1 %exitcond.not.i, label %Supp_DeriveDumpSimsC.exit, label %.lr.ph31.split.i, !llvm.loop !153

Supp_DeriveDumpSimsC.exit:                        ; preds = %.lr.ph31.split.i, %._crit_edge.us.i, %.split
  %44 = getelementptr i8, ptr %0, i64 4
  %.val.i14 = load i32, ptr %44, align 4, !tbaa !3
  %45 = sdiv i32 %.val.i14, %2
  %46 = icmp sgt i32 %45, 0
  br i1 %46, label %.lr.ph20.i, label %Supp_DeriveDumpSims.exit

.lr.ph20.i:                                       ; preds = %Supp_DeriveDumpSimsC.exit
  %47 = getelementptr i8, ptr %0, i64 8
  %48 = icmp sgt i32 %2, 0
  br i1 %48, label %.lr.ph.us.preheader.i17, label %.lr.ph20.split.i

.lr.ph.us.preheader.i17:                          ; preds = %.lr.ph20.i
  %49 = zext nneg i32 %2 to i64
  %wide.trip.count.i19 = zext nneg i32 %45 to i64
  br label %.lr.ph.us.i20

.lr.ph.us.i20:                                    ; preds = %._crit_edge.us.i22, %.lr.ph.us.preheader.i17
  %indvars.iv.i21 = phi i64 [ 0, %.lr.ph.us.preheader.i17 ], [ %indvars.iv.next.i24, %._crit_edge.us.i22 ]
  %50 = mul nuw nsw i64 %indvars.iv.i21, %49
  %.val16.us.i = load ptr, ptr %47, align 8, !tbaa !10
  %51 = getelementptr inbounds nuw i64, ptr %.val16.us.i, i64 %50
  br label %52

52:                                               ; preds = %52, %.lr.ph.us.i20
  %.01417.us.i = phi i32 [ 0, %.lr.ph.us.i20 ], [ %63, %52 ]
  %53 = lshr i32 %.01417.us.i, 6
  %54 = zext nneg i32 %53 to i64
  %55 = getelementptr inbounds nuw i64, ptr %51, i64 %54
  %56 = load i64, ptr %55, align 8, !tbaa !11
  %57 = and i32 %.01417.us.i, 63
  %58 = zext nneg i32 %57 to i64
  %59 = lshr i64 %56, %58
  %60 = trunc i64 %59 to i32
  %61 = and i32 %60, 1
  %62 = or disjoint i32 %61, 48
  %fputc15.us.i = tail call i32 @fputc(i32 %62, ptr nonnull %10)
  %63 = add nuw nsw i32 %.01417.us.i, 1
  %exitcond23.not.i = icmp eq i32 %63, %12
  br i1 %exitcond23.not.i, label %._crit_edge.us.i22, label %52, !llvm.loop !150

._crit_edge.us.i22:                               ; preds = %52
  %fputc.us.i23 = tail call i32 @fputc(i32 10, ptr nonnull %10)
  %indvars.iv.next.i24 = add nuw nsw i64 %indvars.iv.i21, 1
  %exitcond25.not.i = icmp eq i64 %indvars.iv.next.i24, %wide.trip.count.i19
  br i1 %exitcond25.not.i, label %Supp_DeriveDumpSims.exit, label %.lr.ph.us.i20, !llvm.loop !151

.lr.ph20.split.i:                                 ; preds = %.lr.ph20.i, %.lr.ph20.split.i
  %.018.i = phi i32 [ %64, %.lr.ph20.split.i ], [ 0, %.lr.ph20.i ]
  %fputc.i15 = tail call i32 @fputc(i32 10, ptr nonnull %10)
  %64 = add nuw nsw i32 %.018.i, 1
  %exitcond.not.i16 = icmp eq i32 %64, %45
  br i1 %exitcond.not.i16, label %Supp_DeriveDumpSims.exit, label %.lr.ph20.split.i, !llvm.loop !151

.split13:                                         ; preds = %3
  %puts = tail call i32 @puts(ptr nonnull dereferenceable(1) @str.5)
  %65 = shl nsw i32 %2, 6
  %66 = tail call i32 (ptr, ptr, ...) @fprintf(ptr noundef null, ptr noundef nonnull @.str.23, i32 noundef 0, i32 noundef %7, i32 noundef 1, i32 noundef %65) #32
  %67 = load ptr, ptr %1, align 8, !tbaa !59
  %68 = getelementptr i8, ptr %67, i64 4
  %.val.i25 = load i32, ptr %68, align 4, !tbaa !3
  %69 = sdiv i32 %.val.i25, %2
  %70 = icmp sgt i32 %69, 0
  br i1 %70, label %.lr.ph31.i26, label %Supp_DeriveDumpSimsC.exit49

.lr.ph31.i26:                                     ; preds = %.split13
  %71 = getelementptr inbounds nuw i8, ptr %1, i64 8
  %72 = icmp sgt i32 %2, 0
  br i1 %72, label %.lr.ph.us.preheader.i31, label %.lr.ph31.split.i27

.lr.ph.us.preheader.i31:                          ; preds = %.lr.ph31.i26
  %73 = zext nneg i32 %2 to i64
  %wide.trip.count.i33 = zext nneg i32 %69 to i64
  br label %.lr.ph.us.i34

.lr.ph.us.i34:                                    ; preds = %._crit_edge.us.i43, %.lr.ph.us.preheader.i31
  %indvars.iv.i35 = phi i64 [ 0, %.lr.ph.us.preheader.i31 ], [ %indvars.iv.next.i45, %._crit_edge.us.i43 ]
  %74 = load ptr, ptr %1, align 8, !tbaa !59
  %75 = mul nuw nsw i64 %indvars.iv.i35, %73
  %76 = getelementptr i8, ptr %74, i64 8
  %.val27.us.i36 = load ptr, ptr %76, align 8, !tbaa !10
  %77 = getelementptr inbounds nuw i64, ptr %.val27.us.i36, i64 %75
  %78 = load ptr, ptr %71, align 8, !tbaa !59
  %79 = getelementptr i8, ptr %78, i64 8
  %.val26.us.i37 = load ptr, ptr %79, align 8, !tbaa !10
  %80 = getelementptr inbounds nuw i64, ptr %.val26.us.i37, i64 %75
  br label %81

81:                                               ; preds = %94, %.lr.ph.us.i34
  %.02128.us.i38 = phi i32 [ 0, %.lr.ph.us.i34 ], [ %95, %94 ]
  %82 = lshr i32 %.02128.us.i38, 6
  %83 = zext nneg i32 %82 to i64
  %84 = getelementptr inbounds nuw i64, ptr %77, i64 %83
  %85 = load i64, ptr %84, align 8, !tbaa !11
  %86 = and i32 %.02128.us.i38, 63
  %87 = zext nneg i32 %86 to i64
  %88 = shl nuw i64 1, %87
  %89 = and i64 %88, %85
  %.not.us.i39 = icmp eq i64 %89, 0
  br i1 %.not.us.i39, label %90, label %94

90:                                               ; preds = %81
  %91 = getelementptr inbounds nuw i64, ptr %80, i64 %83
  %92 = load i64, ptr %91, align 8, !tbaa !11
  %93 = and i64 %92, %88
  %.not22.us.i47 = icmp eq i64 %93, 0
  %..i48 = select i1 %.not22.us.i47, i32 45, i32 49
  br label %94

94:                                               ; preds = %90, %81
  %.sink.i40 = phi i32 [ 48, %81 ], [ %..i48, %90 ]
  %fputc23.us.i41 = tail call i32 @fputc(i32 %.sink.i40, ptr null)
  %95 = add nuw nsw i32 %.02128.us.i38, 1
  %exitcond34.not.i42 = icmp eq i32 %95, %65
  br i1 %exitcond34.not.i42, label %._crit_edge.us.i43, label %81, !llvm.loop !152

._crit_edge.us.i43:                               ; preds = %94
  %fputc.us.i44 = tail call i32 @fputc(i32 10, ptr null)
  %indvars.iv.next.i45 = add nuw nsw i64 %indvars.iv.i35, 1
  %exitcond36.not.i46 = icmp eq i64 %indvars.iv.next.i45, %wide.trip.count.i33
  br i1 %exitcond36.not.i46, label %Supp_DeriveDumpSimsC.exit49, label %.lr.ph.us.i34, !llvm.loop !153

.lr.ph31.split.i27:                               ; preds = %.lr.ph31.i26, %.lr.ph31.split.i27
  %.029.i28 = phi i32 [ %96, %.lr.ph31.split.i27 ], [ 0, %.lr.ph31.i26 ]
  %fputc.i29 = tail call i32 @fputc(i32 10, ptr null)
  %96 = add nuw nsw i32 %.029.i28, 1
  %exitcond.not.i30 = icmp eq i32 %96, %69
  br i1 %exitcond.not.i30, label %Supp_DeriveDumpSimsC.exit49, label %.lr.ph31.split.i27, !llvm.loop !153

Supp_DeriveDumpSimsC.exit49:                      ; preds = %.lr.ph31.split.i27, %._crit_edge.us.i43, %.split13
  %97 = getelementptr i8, ptr %0, i64 4
  %.val.i50 = load i32, ptr %97, align 4, !tbaa !3
  %98 = sdiv i32 %.val.i50, %2
  %99 = icmp sgt i32 %98, 0
  br i1 %99, label %.lr.ph20.i51, label %Supp_DeriveDumpSims.exit

.lr.ph20.i51:                                     ; preds = %Supp_DeriveDumpSimsC.exit49
  %100 = getelementptr i8, ptr %0, i64 8
  %101 = icmp sgt i32 %2, 0
  br i1 %101, label %.lr.ph.us.preheader.i56, label %.lr.ph20.split.i52

.lr.ph.us.preheader.i56:                          ; preds = %.lr.ph20.i51
  %102 = zext nneg i32 %2 to i64
  %wide.trip.count.i58 = zext nneg i32 %98 to i64
  br label %.lr.ph.us.i59

.lr.ph.us.i59:                                    ; preds = %._crit_edge.us.i65, %.lr.ph.us.preheader.i56
  %indvars.iv.i60 = phi i64 [ 0, %.lr.ph.us.preheader.i56 ], [ %indvars.iv.next.i67, %._crit_edge.us.i65 ]
  %103 = mul nuw nsw i64 %indvars.iv.i60, %102
  %.val16.us.i61 = load ptr, ptr %100, align 8, !tbaa !10
  %104 = getelementptr inbounds nuw i64, ptr %.val16.us.i61, i64 %103
  br label %105

105:                                              ; preds = %105, %.lr.ph.us.i59
  %.01417.us.i62 = phi i32 [ 0, %.lr.ph.us.i59 ], [ %116, %105 ]
  %106 = lshr i32 %.01417.us.i62, 6
  %107 = zext nneg i32 %106 to i64
  %108 = getelementptr inbounds nuw i64, ptr %104, i64 %107
  %109 = load i64, ptr %108, align 8, !tbaa !11
  %110 = and i32 %.01417.us.i62, 63
  %111 = zext nneg i32 %110 to i64
  %112 = lshr i64 %109, %111
  %113 = trunc i64 %112 to i32
  %114 = and i32 %113, 1
  %115 = or disjoint i32 %114, 48
  %fputc15.us.i63 = tail call i32 @fputc(i32 %115, ptr null)
  %116 = add nuw nsw i32 %.01417.us.i62, 1
  %exitcond23.not.i64 = icmp eq i32 %116, %65
  br i1 %exitcond23.not.i64, label %._crit_edge.us.i65, label %105, !llvm.loop !150

._crit_edge.us.i65:                               ; preds = %105
  %fputc.us.i66 = tail call i32 @fputc(i32 10, ptr null)
  %indvars.iv.next.i67 = add nuw nsw i64 %indvars.iv.i60, 1
  %exitcond25.not.i68 = icmp eq i64 %indvars.iv.next.i67, %wide.trip.count.i58
  br i1 %exitcond25.not.i68, label %Supp_DeriveDumpSims.exit, label %.lr.ph.us.i59, !llvm.loop !151

.lr.ph20.split.i52:                               ; preds = %.lr.ph20.i51, %.lr.ph20.split.i52
  %.018.i53 = phi i32 [ %117, %.lr.ph20.split.i52 ], [ 0, %.lr.ph20.i51 ]
  %fputc.i54 = tail call i32 @fputc(i32 10, ptr null)
  %117 = add nuw nsw i32 %.018.i53, 1
  %exitcond.not.i55 = icmp eq i32 %117, %98
  br i1 %exitcond.not.i55, label %Supp_DeriveDumpSims.exit, label %.lr.ph20.split.i52, !llvm.loop !151

Supp_DeriveDumpSims.exit:                         ; preds = %.lr.ph20.split.i, %._crit_edge.us.i22, %.lr.ph20.split.i52, %._crit_edge.us.i65, %Supp_DeriveDumpSimsC.exit49, %Supp_DeriveDumpSimsC.exit
  %118 = tail call i32 @fclose(ptr noundef %10)
  call void @llvm.lifetime.end.p0(i64 100, ptr nonnull %4) #32
  ret void
}